target datalayout = "e-m:e-p270:32:32-p271:32:32-p272:64:64-i64:64-i128:128-f80:128-n8:16:32:64-S128"
target triple = "x86_64-pc-linux-gnu"

%struct.PlaceHolderVar = type { %struct.Expr, ptr, ptr, ptr, i32, i32 }
%struct.Expr = type { i32 }
%struct.PlannerInfo = type { i32, ptr, ptr, i32, ptr, ptr, ptr, ptr, i32, ptr, ptr, ptr, ptr, ptr, ptr, ptr, ptr, i32, ptr, ptr, ptr, ptr, ptr, i8, ptr, ptr, ptr, ptr, ptr, i32, ptr, ptr, ptr, ptr, ptr, ptr, ptr, i32, ptr, ptr, ptr, i32, ptr, ptr, ptr, ptr, ptr, ptr, [8 x ptr], [8 x ptr], ptr, ptr, ptr, ptr, ptr, ptr, ptr, double, double, double, i32, i8, i8, i8, i8, i8, i8, i8, i32, ptr, ptr, i32, i8, i8, i32, ptr, ptr, ptr, ptr, ptr, ptr, i8, ptr }
%struct.PlaceHolderInfo = type { i32, i32, ptr, ptr, ptr, ptr, i32 }
%struct.ForEachState = type { ptr, i32 }
%struct.List = type { i32, i32, i32, ptr, [0 x %union.ListCell] }
%union.ListCell = type { ptr }
%struct.RelOptInfo = type { i32, i32, ptr, double, i8, i8, i8, ptr, ptr, ptr, ptr, ptr, ptr, ptr, ptr, ptr, ptr, i32, i32, i32, i16, i16, ptr, ptr, ptr, ptr, ptr, ptr, ptr, ptr, i32, double, double, ptr, ptr, ptr, i32, i32, i32, i32, i8, ptr, ptr, ptr, ptr, ptr, %struct.QualCost, i32, ptr, i8, i8, ptr, ptr, ptr, ptr, i32, ptr, i8, ptr, ptr, ptr, ptr, ptr, ptr }
%struct.QualCost = type { double, double }
%struct.PathTarget = type { i32, ptr, ptr, %struct.QualCost, i32, i32 }

; Function Attrs: nounwind uwtable
define dso_local void @add_placeholders_to_joinrel(ptr noundef %0, ptr noundef %1, ptr noundef %2, ptr noundef %3, ptr noundef %4) #0 {
  %6 = alloca ptr, align 8
  %7 = alloca ptr, align 8
  %8 = alloca ptr, align 8
  %9 = alloca ptr, align 8
  %10 = alloca ptr, align 8
  %11 = alloca ptr, align 8
  %12 = alloca i64, align 8
  %13 = alloca ptr, align 8
  %14 = alloca %struct.ForEachState, align 8
  %15 = alloca ptr, align 8
  %16 = alloca ptr, align 8
  %17 = alloca %struct.QualCost, align 8
  store ptr %0, ptr %6, align 8
  store ptr %1, ptr %7, align 8
  store ptr %2, ptr %8, align 8
  store ptr %3, ptr %9, align 8
  store ptr %4, ptr %10, align 8
  call void @llvm.lifetime.start.p0(i64 8, ptr %11) #6
  %18 = load ptr, ptr %7, align 8
  %19 = getelementptr inbounds nuw %struct.RelOptInfo, ptr %18, i32 0, i32 2
  %20 = load ptr, ptr %19, align 8
  store ptr %20, ptr %11, align 8
  call void @llvm.lifetime.start.p0(i64 8, ptr %12) #6
  %21 = load ptr, ptr %7, align 8
  %22 = getelementptr inbounds nuw %struct.RelOptInfo, ptr %21, i32 0, i32 7
  %23 = load ptr, ptr %22, align 8
  %24 = getelementptr inbounds nuw %struct.PathTarget, ptr %23, i32 0, i32 4
  %25 = load i32, ptr %24, align 8
  %26 = sext i32 %25 to i64
  store i64 %26, ptr %12, align 8
  call void @llvm.lifetime.start.p0(i64 8, ptr %13) #6
  call void @llvm.lifetime.start.p0(i64 16, ptr %14) #6
  %27 = getelementptr inbounds nuw %struct.ForEachState, ptr %14, i32 0, i32 0
  %28 = load ptr, ptr %6, align 8
  %29 = getelementptr inbounds nuw %struct.PlannerInfo, ptr %28, i32 0, i32 35
  %30 = load ptr, ptr %29, align 8
  store ptr %30, ptr %27, align 8
  %31 = getelementptr inbounds nuw %struct.ForEachState, ptr %14, i32 0, i32 1
  store i32 0, ptr %31, align 8
  %32 = getelementptr i8, ptr %14, i64 12
  call void @llvm.memset.p0.i64(ptr align 4 %32, i8 0, i64 4, i1 false)
  br label %33

33:                                               ; preds = %145, %5
  %34 = getelementptr inbounds nuw %struct.ForEachState, ptr %14, i32 0, i32 0
  %35 = load ptr, ptr %34, align 8
  %36 = icmp ne ptr %35, null
  br i1 %36, label %37, label %54

37:                                               ; preds = %33
  %38 = getelementptr inbounds nuw %struct.ForEachState, ptr %14, i32 0, i32 1
  %39 = load i32, ptr %38, align 8
  %40 = getelementptr inbounds nuw %struct.ForEachState, ptr %14, i32 0, i32 0
  %41 = load ptr, ptr %40, align 8
  %42 = getelementptr inbounds nuw %struct.List, ptr %41, i32 0, i32 1
  %43 = load i32, ptr %42, align 4
  %44 = icmp slt i32 %39, %43
  br i1 %44, label %45, label %54

45:                                               ; preds = %37
  %46 = getelementptr inbounds nuw %struct.ForEachState, ptr %14, i32 0, i32 0
  %47 = load ptr, ptr %46, align 8
  %48 = getelementptr inbounds nuw %struct.List, ptr %47, i32 0, i32 3
  %49 = load ptr, ptr %48, align 8
  %50 = getelementptr inbounds nuw %struct.ForEachState, ptr %14, i32 0, i32 1
  %51 = load i32, ptr %50, align 8
  %52 = sext i32 %51 to i64
  %53 = getelementptr inbounds %union.ListCell, ptr %49, i64 %52
  store ptr %53, ptr %13, align 8
  br label %55

54:                                               ; preds = %37, %33
  store ptr null, ptr %13, align 8
  br label %55

55:                                               ; preds = %54, %45
  %56 = phi i32 [ 1, %45 ], [ 0, %54 ]
  %57 = icmp ne i32 %56, 0
  br i1 %57, label %59, label %58

58:                                               ; preds = %55
  call void @llvm.lifetime.end.p0(i64 16, ptr %14) #6
  br label %149

59:                                               ; preds = %55
  call void @llvm.lifetime.start.p0(i64 8, ptr %15) #6
  %60 = load ptr, ptr %13, align 8
  %61 = load ptr, ptr %60, align 8
  store ptr %61, ptr %15, align 8
  %62 = load ptr, ptr %15, align 8
  %63 = getelementptr inbounds nuw %struct.PlaceHolderInfo, ptr %62, i32 0, i32 3
  %64 = load ptr, ptr %63, align 8
  %65 = load ptr, ptr %11, align 8
  %66 = call zeroext i1 @bms_is_subset(ptr noundef %64, ptr noundef %65)
  br i1 %66, label %67, label %144

67:                                               ; preds = %59
  %68 = load ptr, ptr %15, align 8
  %69 = getelementptr inbounds nuw %struct.PlaceHolderInfo, ptr %68, i32 0, i32 5
  %70 = load ptr, ptr %69, align 8
  %71 = load ptr, ptr %11, align 8
  %72 = call zeroext i1 @bms_nonempty_difference(ptr noundef %70, ptr noundef %71)
  br i1 %72, label %73, label %134

73:                                               ; preds = %67
  %74 = load ptr, ptr %15, align 8
  %75 = getelementptr inbounds nuw %struct.PlaceHolderInfo, ptr %74, i32 0, i32 3
  %76 = load ptr, ptr %75, align 8
  %77 = load ptr, ptr %8, align 8
  %78 = getelementptr inbounds nuw %struct.RelOptInfo, ptr %77, i32 0, i32 2
  %79 = load ptr, ptr %78, align 8
  %80 = call zeroext i1 @bms_is_subset(ptr noundef %76, ptr noundef %79)
  br i1 %80, label %133, label %81

81:                                               ; preds = %73
  %82 = load ptr, ptr %15, align 8
  %83 = getelementptr inbounds nuw %struct.PlaceHolderInfo, ptr %82, i32 0, i32 3
  %84 = load ptr, ptr %83, align 8
  %85 = load ptr, ptr %9, align 8
  %86 = getelementptr inbounds nuw %struct.RelOptInfo, ptr %85, i32 0, i32 2
  %87 = load ptr, ptr %86, align 8
  %88 = call zeroext i1 @bms_is_subset(ptr noundef %84, ptr noundef %87)
  br i1 %88, label %133, label %89

89:                                               ; preds = %81
  call void @llvm.lifetime.start.p0(i64 8, ptr %16) #6
  %90 = load ptr, ptr %15, align 8
  %91 = getelementptr inbounds nuw %struct.PlaceHolderInfo, ptr %90, i32 0, i32 2
  %92 = load ptr, ptr %91, align 8
  %93 = call ptr @copyObjectImpl(ptr noundef %92)
  store ptr %93, ptr %16, align 8
  call void @llvm.lifetime.start.p0(i64 16, ptr %17) #6
  %94 = load ptr, ptr %7, align 8
  %95 = getelementptr inbounds nuw %struct.RelOptInfo, ptr %94, i32 0, i32 7
  %96 = load ptr, ptr %95, align 8
  %97 = getelementptr inbounds nuw %struct.PathTarget, ptr %96, i32 0, i32 1
  %98 = load ptr, ptr %97, align 8
  %99 = load ptr, ptr %16, align 8
  %100 = call ptr @lappend(ptr noundef %98, ptr noundef %99)
  %101 = load ptr, ptr %7, align 8
  %102 = getelementptr inbounds nuw %struct.RelOptInfo, ptr %101, i32 0, i32 7
  %103 = load ptr, ptr %102, align 8
  %104 = getelementptr inbounds nuw %struct.PathTarget, ptr %103, i32 0, i32 1
  store ptr %100, ptr %104, align 8
  %105 = load ptr, ptr %16, align 8
  %106 = getelementptr inbounds nuw %struct.PlaceHolderVar, ptr %105, i32 0, i32 1
  %107 = load ptr, ptr %106, align 8
  %108 = load ptr, ptr %6, align 8
  call void @cost_qual_eval_node(ptr noundef %17, ptr noundef %107, ptr noundef %108)
  %109 = getelementptr inbounds nuw %struct.QualCost, ptr %17, i32 0, i32 0
  %110 = load double, ptr %109, align 8
  %111 = load ptr, ptr %7, align 8
  %112 = getelementptr inbounds nuw %struct.RelOptInfo, ptr %111, i32 0, i32 7
  %113 = load ptr, ptr %112, align 8
  %114 = getelementptr inbounds nuw %struct.PathTarget, ptr %113, i32 0, i32 3
  %115 = getelementptr inbounds nuw %struct.QualCost, ptr %114, i32 0, i32 0
  %116 = load double, ptr %115, align 8
  %117 = fadd double %116, %110
  store double %117, ptr %115, align 8
  %118 = getelementptr inbounds nuw %struct.QualCost, ptr %17, i32 0, i32 1
  %119 = load double, ptr %118, align 8
  %120 = load ptr, ptr %7, align 8
  %121 = getelementptr inbounds nuw %struct.RelOptInfo, ptr %120, i32 0, i32 7
  %122 = load ptr, ptr %121, align 8
  %123 = getelementptr inbounds nuw %struct.PathTarget, ptr %122, i32 0, i32 3
  %124 = getelementptr inbounds nuw %struct.QualCost, ptr %123, i32 0, i32 1
  %125 = load double, ptr %124, align 8
  %126 = fadd double %125, %119
  store double %126, ptr %124, align 8
  %127 = load ptr, ptr %15, align 8
  %128 = getelementptr inbounds nuw %struct.PlaceHolderInfo, ptr %127, i32 0, i32 6
  %129 = load i32, ptr %128, align 8
  %130 = sext i32 %129 to i64
  %131 = load i64, ptr %12, align 8
  %132 = add i64 %131, %130
  store i64 %132, ptr %12, align 8
  call void @llvm.lifetime.end.p0(i64 16, ptr %17) #6
  call void @llvm.lifetime.end.p0(i64 8, ptr %16) #6
  br label %133

133:                                              ; preds = %89, %81, %73
  br label %134

134:                                              ; preds = %133, %67
  %135 = load ptr, ptr %7, align 8
  %136 = getelementptr inbounds nuw %struct.RelOptInfo, ptr %135, i32 0, i32 15
  %137 = load ptr, ptr %136, align 8
  %138 = load ptr, ptr %15, align 8
  %139 = getelementptr inbounds nuw %struct.PlaceHolderInfo, ptr %138, i32 0, i32 4
  %140 = load ptr, ptr %139, align 8
  %141 = call ptr @bms_add_members(ptr noundef %137, ptr noundef %140)
  %142 = load ptr, ptr %7, align 8
  %143 = getelementptr inbounds nuw %struct.RelOptInfo, ptr %142, i32 0, i32 15
  store ptr %141, ptr %143, align 8
  br label %144

144:                                              ; preds = %134, %59
  call void @llvm.lifetime.end.p0(i64 8, ptr %15) #6
  br label %145

145:                                              ; preds = %144
  %146 = getelementptr inbounds nuw %struct.ForEachState, ptr %14, i32 0, i32 1
  %147 = load i32, ptr %146, align 8
  %148 = add i32 %147, 1
  store i32 %148, ptr %146, align 8
  br label %33, !llvm.loop !13

149:                                              ; preds = %58
  %150 = load i64, ptr %12, align 8
  %151 = call i32 @clamp_width_est(i64 noundef %150)
  %152 = load ptr, ptr %7, align 8
  %153 = getelementptr inbounds nuw %struct.RelOptInfo, ptr %152, i32 0, i32 7
  %154 = load ptr, ptr %153, align 8
  %155 = getelementptr inbounds nuw %struct.PathTarget, ptr %154, i32 0, i32 4
  store i32 %151, ptr %155, align 8
  call void @llvm.lifetime.end.p0(i64 8, ptr %13) #6
  call void @llvm.lifetime.end.p0(i64 8, ptr %12) #6
  call void @llvm.lifetime.end.p0(i64 8, ptr %11) #6
  ret void
}