; Function Attrs: nounwind uwtable
define dso_local void @add_placeholders_to_joinrel(ptr noundef %0, ptr noundef captures(none) %1, ptr noundef readonly captures(none) %2, ptr noundef readonly captures(none) %3, ptr noundef readnone captures(none) %4) local_unnamed_addr #0 {
  %6 = alloca %struct.QualCost, align 8
  %7 = getelementptr inbounds nuw i8, ptr %1, i64 8
  %8 = load ptr, ptr %7, align 8
  %9 = getelementptr inbounds nuw i8, ptr %1, i64 32
  %10 = load ptr, ptr %9, align 8
  %11 = getelementptr inbounds nuw i8, ptr %10, i64 40
  %12 = load i32, ptr %11, align 8
  %13 = sext i32 %12 to i64
  %14 = getelementptr inbounds nuw i8, ptr %0, i64 280
  %15 = load ptr, ptr %14, align 8
  %16 = getelementptr inbounds nuw i8, ptr %15, i64 4
  %.not = icmp eq ptr %15, null
  br i1 %.not, label %._crit_edge, label %.lr.ph

.lr.ph:                                           ; preds = %5
  %17 = getelementptr inbounds nuw i8, ptr %15, i64 16
  %18 = getelementptr inbounds nuw i8, ptr %2, i64 8
  %19 = getelementptr inbounds nuw i8, ptr %3, i64 8
  %20 = getelementptr inbounds nuw i8, ptr %6, i64 8
  %21 = getelementptr inbounds nuw i8, ptr %1, i64 96
  %22 = load i32, ptr %16, align 4
  %23 = icmp sgt i32 %22, 0
  br i1 %23, label %.lr.ph42, label %._crit_edge

._crit_edge:                                      ; preds = %76, %.lr.ph, %5
  %.0.lcssa = phi i64 [ %13, %5 ], [ %13, %.lr.ph ], [ %.1, %76 ]
  %24 = call i32 @clamp_width_est(i64 noundef %.0.lcssa) #5
  %25 = load ptr, ptr %9, align 8
  %26 = getelementptr inbounds nuw i8, ptr %25, i64 40
  store i32 %24, ptr %26, align 8
  ret void

.lr.ph42:                                         ; preds = %.lr.ph, %76
  %.03641 = phi i64 [ %.1, %76 ], [ %13, %.lr.ph ]
  %indvars.iv40 = phi i64 [ %indvars.iv.next, %76 ], [ 0, %.lr.ph ]
  %27 = load ptr, ptr %17, align 8
  %28 = getelementptr inbounds nuw %union.ListCell, ptr %27, i64 %indvars.iv40
  %29 = load ptr, ptr %28, align 8
  %30 = getelementptr inbounds nuw i8, ptr %29, i64 16
  %31 = load ptr, ptr %30, align 8
  %32 = call zeroext i1 @bms_is_subset(ptr noundef %31, ptr noundef %8) #5
  br i1 %32, label %33, label %76

33:                                               ; preds = %.lr.ph42
  %34 = getelementptr inbounds nuw i8, ptr %29, i64 32
  %35 = load ptr, ptr %34, align 8
  %36 = call zeroext i1 @bms_nonempty_difference(ptr noundef %35, ptr noundef %8) #5
  br i1 %36, label %37, label %71

37:                                               ; preds = %33
  %38 = load ptr, ptr %30, align 8
  %39 = load ptr, ptr %18, align 8
  %40 = call zeroext i1 @bms_is_subset(ptr noundef %38, ptr noundef %39) #5
  br i1 %40, label %71, label %41

41:                                               ; preds = %37
  %42 = load ptr, ptr %30, align 8
  %43 = load ptr, ptr %19, align 8
  %44 = call zeroext i1 @bms_is_subset(ptr noundef %42, ptr noundef %43) #5
  br i1 %44, label %71, label %45

45:                                               ; preds = %41
  %46 = getelementptr inbounds nuw i8, ptr %29, i64 8
  %47 = load ptr, ptr %46, align 8
  %48 = call ptr @copyObjectImpl(ptr noundef %47) #5
  call void @llvm.lifetime.start.p0(i64 16, ptr nonnull %6) #5
  %49 = load ptr, ptr %9, align 8
  %50 = getelementptr inbounds nuw i8, ptr %49, i64 8
  %51 = load ptr, ptr %50, align 8
  %52 = call ptr @lappend(ptr noundef %51, ptr noundef %48) #5
  %53 = load ptr, ptr %9, align 8
  %54 = getelementptr inbounds nuw i8, ptr %53, i64 8
  store ptr %52, ptr %54, align 8
  %55 = getelementptr inbounds nuw i8, ptr %48, i64 8
  %56 = load ptr, ptr %55, align 8
  call void @cost_qual_eval_node(ptr noundef nonnull %6, ptr noundef %56, ptr noundef %0) #5
  %57 = load double, ptr %6, align 8
  %58 = load ptr, ptr %9, align 8
  %59 = getelementptr inbounds nuw i8, ptr %58, i64 24
  %60 = load double, ptr %59, align 8
  %61 = fadd double %57, %60
  store double %61, ptr %59, align 8
  %62 = load double, ptr %20, align 8
  %63 = load ptr, ptr %9, align 8
  %64 = getelementptr inbounds nuw i8, ptr %63, i64 32
  %65 = load double, ptr %64, align 8
  %66 = fadd double %62, %65
  store double %66, ptr %64, align 8
  %67 = getelementptr inbounds nuw i8, ptr %29, i64 40
  %68 = load i32, ptr %67, align 8
  %69 = sext i32 %68 to i64
  %70 = add i64 %.03641, %69
  call void @llvm.lifetime.end.p0(i64 16, ptr nonnull %6) #5
  br label %71

71:                                               ; preds = %37, %41, %45, %33
  %.2 = phi i64 [ %.03641, %37 ], [ %.03641, %41 ], [ %70, %45 ], [ %.03641, %33 ]
  %72 = load ptr, ptr %21, align 8
  %73 = getelementptr inbounds nuw i8, ptr %29, i64 24
  %74 = load ptr, ptr %73, align 8
  %75 = call ptr @bms_add_members(ptr noundef %72, ptr noundef %74) #5
  store ptr %75, ptr %21, align 8
  br label %76

76:                                               ; preds = %71, %.lr.ph42
  %.1 = phi i64 [ %.2, %71 ], [ %.03641, %.lr.ph42 ]
  %indvars.iv.next = add nuw nsw i64 %indvars.iv40, 1
  %77 = load i32, ptr %16, align 4
  %78 = sext i32 %77 to i64
  %79 = icmp slt i64 %indvars.iv.next, %78
  br i1 %79, label %.lr.ph42, label %._crit_edge
}